
text.o:     file format elf32-littleriscv


Disassembly of section .text:

00000000 <main>:
   0:	fa010113          	addi	sp,sp,-96
   4:	04112e23          	sw	ra,92(sp)
   8:	04812c23          	sw	s0,88(sp)
   c:	06010413          	addi	s0,sp,96
  10:	000107b7          	lui	a5,0x10
  14:	37078793          	addi	a5,a5,880 # 10370 <.L16+0x10030>
  18:	fef42623          	sw	a5,-20(s0)
  1c:	000057b7          	lui	a5,0x5
  20:	e2078793          	addi	a5,a5,-480 # 4e20 <.L16+0x4ae0>
  24:	fef42223          	sw	a5,-28(s0)
  28:	fe042023          	sw	zero,-32(s0)
  2c:	fc042e23          	sw	zero,-36(s0)
  30:	fc042c23          	sw	zero,-40(s0)
  34:	fa042623          	sw	zero,-84(s0)
  38:	fc042a23          	sw	zero,-44(s0)
  3c:	fc042823          	sw	zero,-48(s0)
  40:	fc042623          	sw	zero,-52(s0)
  44:	fc042423          	sw	zero,-56(s0)
  48:	fc042223          	sw	zero,-60(s0)
  4c:	fc042023          	sw	zero,-64(s0)
  50:	fa042e23          	sw	zero,-68(s0)
  54:	fa042c23          	sw	zero,-72(s0)
  58:	fa042a23          	sw	zero,-76(s0)
  5c:	fa042823          	sw	zero,-80(s0)
  60:	fe042423          	sw	zero,-24(s0)
  64:	1d40006f          	j	238 <.L2>

00000068 <.L15>:
  68:	fec42783          	lw	a5,-20(s0)
  6c:	0007a783          	lw	a5,0(a5)
  70:	faf42423          	sw	a5,-88(s0)
  74:	fd842703          	lw	a4,-40(s0)
  78:	fa842783          	lw	a5,-88(s0)
  7c:	00f707b3          	add	a5,a4,a5
  80:	fcf42c23          	sw	a5,-40(s0)
  84:	fa842703          	lw	a4,-88(s0)
  88:	fe442783          	lw	a5,-28(s0)
  8c:	00f75663          	ble	a5,a4,98 <.L3>
  90:	fa842783          	lw	a5,-88(s0)
  94:	fef42223          	sw	a5,-28(s0)

00000098 <.L3>:
  98:	fa842703          	lw	a4,-88(s0)
  9c:	fe042783          	lw	a5,-32(s0)
  a0:	00e7d663          	ble	a4,a5,ac <.L4>
  a4:	fa842783          	lw	a5,-88(s0)
  a8:	fef42023          	sw	a5,-32(s0)

000000ac <.L4>:
  ac:	1f400793          	li	a5,500
  b0:	fef42423          	sw	a5,-24(s0)
  b4:	fa842783          	lw	a5,-88(s0)
  b8:	fcf42e23          	sw	a5,-36(s0)
  bc:	fe842783          	lw	a5,-24(s0)
  c0:	0007ce63          	bltz	a5,dc <.L5>
  c4:	fe842703          	lw	a4,-24(s0)
  c8:	06300793          	li	a5,99
  cc:	00e7c863          	blt	a5,a4,dc <.L5>
  d0:	fd442783          	lw	a5,-44(s0)
  d4:	00178793          	addi	a5,a5,1
  d8:	fcf42a23          	sw	a5,-44(s0)

000000dc <.L5>:
  dc:	fe842703          	lw	a4,-24(s0)
  e0:	06300793          	li	a5,99
  e4:	00e7de63          	ble	a4,a5,100 <.L6>
  e8:	fe842703          	lw	a4,-24(s0)
  ec:	0c700793          	li	a5,199
  f0:	00e7c863          	blt	a5,a4,100 <.L6>
  f4:	fd042783          	lw	a5,-48(s0)
  f8:	00178793          	addi	a5,a5,1
  fc:	fcf42823          	sw	a5,-48(s0)

00000100 <.L6>:
 100:	fe842703          	lw	a4,-24(s0)
 104:	0c700793          	li	a5,199
 108:	00e7de63          	ble	a4,a5,124 <.L7>
 10c:	fe842703          	lw	a4,-24(s0)
 110:	12b00793          	li	a5,299
 114:	00e7c863          	blt	a5,a4,124 <.L7>
 118:	fcc42783          	lw	a5,-52(s0)
 11c:	00178793          	addi	a5,a5,1
 120:	fcf42623          	sw	a5,-52(s0)

00000124 <.L7>:
 124:	fe842703          	lw	a4,-24(s0)
 128:	12b00793          	li	a5,299
 12c:	00e7de63          	ble	a4,a5,148 <.L8>
 130:	fe842703          	lw	a4,-24(s0)
 134:	18f00793          	li	a5,399
 138:	00e7c863          	blt	a5,a4,148 <.L8>
 13c:	fc842783          	lw	a5,-56(s0)
 140:	00178793          	addi	a5,a5,1
 144:	fcf42423          	sw	a5,-56(s0)

00000148 <.L8>:
 148:	fe842703          	lw	a4,-24(s0)
 14c:	18f00793          	li	a5,399
 150:	00e7de63          	ble	a4,a5,16c <.L9>
 154:	fe842703          	lw	a4,-24(s0)
 158:	1f300793          	li	a5,499
 15c:	00e7c863          	blt	a5,a4,16c <.L9>
 160:	fc442783          	lw	a5,-60(s0)
 164:	00178793          	addi	a5,a5,1
 168:	fcf42223          	sw	a5,-60(s0)

0000016c <.L9>:
 16c:	fe842703          	lw	a4,-24(s0)
 170:	1f300793          	li	a5,499
 174:	00e7de63          	ble	a4,a5,190 <.L10>
 178:	fe842703          	lw	a4,-24(s0)
 17c:	25700793          	li	a5,599
 180:	00e7c863          	blt	a5,a4,190 <.L10>
 184:	fc042783          	lw	a5,-64(s0)
 188:	00178793          	addi	a5,a5,1
 18c:	fcf42023          	sw	a5,-64(s0)

00000190 <.L10>:
 190:	fe842703          	lw	a4,-24(s0)
 194:	25700793          	li	a5,599
 198:	00e7de63          	ble	a4,a5,1b4 <.L11>
 19c:	fe842703          	lw	a4,-24(s0)
 1a0:	2bb00793          	li	a5,699
 1a4:	00e7c863          	blt	a5,a4,1b4 <.L11>
 1a8:	fbc42783          	lw	a5,-68(s0)
 1ac:	00178793          	addi	a5,a5,1
 1b0:	faf42e23          	sw	a5,-68(s0)

000001b4 <.L11>:
 1b4:	fe842703          	lw	a4,-24(s0)
 1b8:	2bb00793          	li	a5,699
 1bc:	00e7de63          	ble	a4,a5,1d8 <.L12>
 1c0:	fe842703          	lw	a4,-24(s0)
 1c4:	31f00793          	li	a5,799
 1c8:	00e7c863          	blt	a5,a4,1d8 <.L12>
 1cc:	fb842783          	lw	a5,-72(s0)
 1d0:	00178793          	addi	a5,a5,1
 1d4:	faf42c23          	sw	a5,-72(s0)

000001d8 <.L12>:
 1d8:	fe842703          	lw	a4,-24(s0)
 1dc:	31f00793          	li	a5,799
 1e0:	00e7de63          	ble	a4,a5,1fc <.L13>
 1e4:	fe842703          	lw	a4,-24(s0)
 1e8:	38300793          	li	a5,899
 1ec:	00e7c863          	blt	a5,a4,1fc <.L13>
 1f0:	fb442783          	lw	a5,-76(s0)
 1f4:	00178793          	addi	a5,a5,1
 1f8:	faf42a23          	sw	a5,-76(s0)

000001fc <.L13>:
 1fc:	fe842703          	lw	a4,-24(s0)
 200:	38300793          	li	a5,899
 204:	00e7de63          	ble	a4,a5,220 <.L14>
 208:	fe842703          	lw	a4,-24(s0)
 20c:	3e800793          	li	a5,1000
 210:	00e7c863          	blt	a5,a4,220 <.L14>
 214:	fb042783          	lw	a5,-80(s0)
 218:	00178793          	addi	a5,a5,1
 21c:	faf42823          	sw	a5,-80(s0)

00000220 <.L14>:
 220:	fec42783          	lw	a5,-20(s0)
 224:	00478793          	addi	a5,a5,4
 228:	fef42623          	sw	a5,-20(s0)
 22c:	fe842783          	lw	a5,-24(s0)
 230:	00178793          	addi	a5,a5,1
 234:	fef42423          	sw	a5,-24(s0)

00000238 <.L2>:
 238:	fe842703          	lw	a4,-24(s0)
 23c:	3e700793          	li	a5,999
 240:	e2e7d4e3          	ble	a4,a5,68 <.L15>
 244:	fd842783          	lw	a5,-40(s0)
 248:	3e800593          	li	a1,1000
 24c:	00078513          	mv	a0,a5
 250:	00000317          	auipc	t1,0x0
 254:	000300e7          	jalr	t1
 258:	00050793          	mv	a5,a0
 25c:	faf42623          	sw	a5,-84(s0)
 260:	000127b7          	lui	a5,0x12
 264:	ff878793          	addi	a5,a5,-8 # 11ff8 <.L16+0x11cb8>
 268:	fe442703          	lw	a4,-28(s0)
 26c:	00e7a023          	sw	a4,0(a5)
 270:	000127b7          	lui	a5,0x12
 274:	ff878793          	addi	a5,a5,-8 # 11ff8 <.L16+0x11cb8>
 278:	fe042703          	lw	a4,-32(s0)
 27c:	00e7a023          	sw	a4,0(a5)
 280:	000127b7          	lui	a5,0x12
 284:	ff878793          	addi	a5,a5,-8 # 11ff8 <.L16+0x11cb8>
 288:	fdc42703          	lw	a4,-36(s0)
 28c:	00e7a023          	sw	a4,0(a5)
 290:	000127b7          	lui	a5,0x12
 294:	ff878793          	addi	a5,a5,-8 # 11ff8 <.L16+0x11cb8>
 298:	fac42703          	lw	a4,-84(s0)
 29c:	00e7a023          	sw	a4,0(a5)
 2a0:	000127b7          	lui	a5,0x12
 2a4:	ff878793          	addi	a5,a5,-8 # 11ff8 <.L16+0x11cb8>
 2a8:	fd442703          	lw	a4,-44(s0)
 2ac:	00e7a023          	sw	a4,0(a5)
 2b0:	000127b7          	lui	a5,0x12
 2b4:	ff878793          	addi	a5,a5,-8 # 11ff8 <.L16+0x11cb8>
 2b8:	fd042703          	lw	a4,-48(s0)
 2bc:	00e7a023          	sw	a4,0(a5)
 2c0:	000127b7          	lui	a5,0x12
 2c4:	ff878793          	addi	a5,a5,-8 # 11ff8 <.L16+0x11cb8>
 2c8:	fcc42703          	lw	a4,-52(s0)
 2cc:	00e7a023          	sw	a4,0(a5)
 2d0:	000127b7          	lui	a5,0x12
 2d4:	ff878793          	addi	a5,a5,-8 # 11ff8 <.L16+0x11cb8>
 2d8:	fc842703          	lw	a4,-56(s0)
 2dc:	00e7a023          	sw	a4,0(a5)
 2e0:	000127b7          	lui	a5,0x12
 2e4:	ff878793          	addi	a5,a5,-8 # 11ff8 <.L16+0x11cb8>
 2e8:	fc442703          	lw	a4,-60(s0)
 2ec:	00e7a023          	sw	a4,0(a5)
 2f0:	000127b7          	lui	a5,0x12
 2f4:	ff878793          	addi	a5,a5,-8 # 11ff8 <.L16+0x11cb8>
 2f8:	fc042703          	lw	a4,-64(s0)
 2fc:	00e7a023          	sw	a4,0(a5)
 300:	000127b7          	lui	a5,0x12
 304:	ff878793          	addi	a5,a5,-8 # 11ff8 <.L16+0x11cb8>
 308:	fbc42703          	lw	a4,-68(s0)
 30c:	00e7a023          	sw	a4,0(a5)
 310:	000127b7          	lui	a5,0x12
 314:	ff878793          	addi	a5,a5,-8 # 11ff8 <.L16+0x11cb8>
 318:	fb842703          	lw	a4,-72(s0)
 31c:	00e7a023          	sw	a4,0(a5)
 320:	000127b7          	lui	a5,0x12
 324:	ff878793          	addi	a5,a5,-8 # 11ff8 <.L16+0x11cb8>
 328:	fb442703          	lw	a4,-76(s0)
 32c:	00e7a023          	sw	a4,0(a5)
 330:	000127b7          	lui	a5,0x12
 334:	ff878793          	addi	a5,a5,-8 # 11ff8 <.L16+0x11cb8>
 338:	fb042703          	lw	a4,-80(s0)
 33c:	00e7a023          	sw	a4,0(a5)

00000340 <.L16>:
 340:	0000006f          	j	340 <.L16>
