
sort.o:     file format elf32-littleriscv


Disassembly of section .text:

00000000 <main>:
   0:	fb010113          	addi	sp,sp,-80
   4:	04812623          	sw	s0,76(sp)
   8:	05010413          	addi	s0,sp,80
   c:	00100793          	li	a5,1
  10:	faf42a23          	sw	a5,-76(s0)
  14:	00800793          	li	a5,8
  18:	faf42c23          	sw	a5,-72(s0)
  1c:	00400793          	li	a5,4
  20:	faf42e23          	sw	a5,-68(s0)
  24:	00600793          	li	a5,6
  28:	fcf42023          	sw	a5,-64(s0)
  2c:	fc042223          	sw	zero,-60(s0)
  30:	00300793          	li	a5,3
  34:	fcf42423          	sw	a5,-56(s0)
  38:	00500793          	li	a5,5
  3c:	fcf42623          	sw	a5,-52(s0)
  40:	00200793          	li	a5,2
  44:	fcf42823          	sw	a5,-48(s0)
  48:	00700793          	li	a5,7
  4c:	fcf42a23          	sw	a5,-44(s0)
  50:	00900793          	li	a5,9
  54:	fcf42c23          	sw	a5,-40(s0)
  58:	fe0401a3          	sb	zero,-29(s0)
  5c:	fe042623          	sw	zero,-20(s0)
  60:	0e40006f          	j	144 <.L2>

00000064 <.L8>:
  64:	fe0401a3          	sb	zero,-29(s0)
  68:	fe042423          	sw	zero,-24(s0)
  6c:	0a80006f          	j	114 <.L3>

00000070 <.L5>:
  70:	fe842783          	lw	a5,-24(s0)
  74:	00279793          	slli	a5,a5,0x2
  78:	ff040713          	addi	a4,s0,-16
  7c:	00f707b3          	add	a5,a4,a5
  80:	fc47a703          	lw	a4,-60(a5)
  84:	fe842783          	lw	a5,-24(s0)
  88:	00178793          	addi	a5,a5,1
  8c:	00279793          	slli	a5,a5,0x2
  90:	ff040693          	addi	a3,s0,-16
  94:	00f687b3          	add	a5,a3,a5
  98:	fc47a783          	lw	a5,-60(a5)
  9c:	06e7d663          	ble	a4,a5,108 <.L4>
  a0:	fe842783          	lw	a5,-24(s0)
  a4:	00279793          	slli	a5,a5,0x2
  a8:	ff040713          	addi	a4,s0,-16
  ac:	00f707b3          	add	a5,a4,a5
  b0:	fc47a783          	lw	a5,-60(a5)
  b4:	fcf42e23          	sw	a5,-36(s0)
  b8:	fe842783          	lw	a5,-24(s0)
  bc:	00178793          	addi	a5,a5,1
  c0:	00279793          	slli	a5,a5,0x2
  c4:	ff040713          	addi	a4,s0,-16
  c8:	00f707b3          	add	a5,a4,a5
  cc:	fc47a703          	lw	a4,-60(a5)
  d0:	fe842783          	lw	a5,-24(s0)
  d4:	00279793          	slli	a5,a5,0x2
  d8:	ff040693          	addi	a3,s0,-16
  dc:	00f687b3          	add	a5,a3,a5
  e0:	fce7a223          	sw	a4,-60(a5)
  e4:	fe842783          	lw	a5,-24(s0)
  e8:	00178793          	addi	a5,a5,1
  ec:	00279793          	slli	a5,a5,0x2
  f0:	ff040713          	addi	a4,s0,-16
  f4:	00f707b3          	add	a5,a4,a5
  f8:	fdc42703          	lw	a4,-36(s0)
  fc:	fce7a223          	sw	a4,-60(a5)
 100:	00100793          	li	a5,1
 104:	fef401a3          	sb	a5,-29(s0)

00000108 <.L4>:
 108:	fe842783          	lw	a5,-24(s0)
 10c:	00178793          	addi	a5,a5,1
 110:	fef42423          	sw	a5,-24(s0)

00000114 <.L3>:
 114:	00900713          	li	a4,9
 118:	fec42783          	lw	a5,-20(s0)
 11c:	40f70733          	sub	a4,a4,a5
 120:	fe842783          	lw	a5,-24(s0)
 124:	f4e7c6e3          	blt	a5,a4,70 <.L5>
 128:	fe344783          	lbu	a5,-29(s0)
 12c:	0017c793          	xori	a5,a5,1
 130:	0ff7f793          	andi	a5,a5,255
 134:	02079063          	bnez	a5,154 <.L12>
 138:	fec42783          	lw	a5,-20(s0)
 13c:	00178793          	addi	a5,a5,1
 140:	fef42623          	sw	a5,-20(s0)

00000144 <.L2>:
 144:	fec42703          	lw	a4,-20(s0)
 148:	00800793          	li	a5,8
 14c:	f0e7dce3          	ble	a4,a5,64 <.L8>
 150:	0080006f          	j	158 <.L7>

00000154 <.L12>:
 154:	00000013          	nop

00000158 <.L7>:
 158:	fe042223          	sw	zero,-28(s0)
 15c:	0300006f          	j	18c <.L9>

00000160 <.L10>:
 160:	000127b7          	lui	a5,0x12
 164:	ff878713          	addi	a4,a5,-8 # 11ff8 <.L11+0x11e60>
 168:	fe442783          	lw	a5,-28(s0)
 16c:	00279793          	slli	a5,a5,0x2
 170:	ff040693          	addi	a3,s0,-16
 174:	00f687b3          	add	a5,a3,a5
 178:	fc47a783          	lw	a5,-60(a5)
 17c:	00f72023          	sw	a5,0(a4)
 180:	fe442783          	lw	a5,-28(s0)
 184:	00178793          	addi	a5,a5,1
 188:	fef42223          	sw	a5,-28(s0)

0000018c <.L9>:
 18c:	fe442703          	lw	a4,-28(s0)
 190:	00800793          	li	a5,8
 194:	fce7d6e3          	ble	a4,a5,160 <.L10>

00000198 <.L11>:
 198:	0000006f          	j	198 <.L11>
